target datalayout = "e-m:e-p270:32:32-p271:32:32-p272:64:64-i64:64-i128:128-f80:128-n8:16:32:64-S128"
target triple = "x86_64-pc-linux-gnu"

%struct.event_base = type { ptr, ptr, %struct.event_changelist, ptr, %struct.evsig_info, i32, i32, i32, i32, i32, i32, i32, i32, i32, i32, i32, i32, ptr, i32, %struct.evcallback_list, ptr, i32, i32, %struct.event_signal_map, %struct.event_signal_map, %struct.min_heap, %struct.timeval, %struct.evutil_monotonic_timer, %struct.timeval, i64, i64, ptr, ptr, i32, ptr, i32, %struct.timeval, i32, i32, i32, [2 x i32], %struct.event, ptr, %struct.evutil_weakrand_state, %struct.once_event_list, [2 x %struct.evwatch_list] }
%struct.event_changelist = type { ptr, i32, i32 }
%struct.evsig_info = type { %struct.event, [2 x i32], i32, i32, [65 x ptr], ptr, i32 }
%struct.evcallback_list = type { ptr, ptr }
%struct.event_signal_map = type { ptr, i32 }
%struct.min_heap = type { ptr, i64, i64 }
%struct.evutil_monotonic_timer = type { i32, %struct.timeval, %struct.timeval }
%struct.timeval = type { i64, i64 }
%struct.event = type { %struct.event_callback, %union.anon.0, i32, i16, i16, ptr, %union.anon.2, %struct.timeval }
%struct.event_callback = type { %struct.anon, i16, i8, i8, %union.anon, ptr }
%struct.anon = type { ptr, ptr }
%union.anon = type { ptr }
%union.anon.0 = type { %struct.anon.1 }
%struct.anon.1 = type { ptr, ptr }
%union.anon.2 = type { %struct.anon.3 }
%struct.anon.3 = type { %struct.anon.4, %struct.timeval }
%struct.anon.4 = type { ptr, ptr }
%struct.evutil_weakrand_state = type { i32 }
%struct.once_event_list = type { ptr }
%struct.evwatch_list = type { ptr, ptr }
%struct.pollop = type { i32, i32, i32, ptr, ptr }
%struct.pollidx = type { i32 }
%struct.pollfd = type { i32, i16, i16 }

; Function Attrs: nounwind uwtable
define internal i32 @poll_del(ptr noundef %0, i32 noundef %1, i16 noundef signext %2, i16 noundef signext %3, ptr noundef %4) #0 {
  %6 = alloca i32, align 4
  %7 = alloca ptr, align 8
  %8 = alloca i32, align 4
  %9 = alloca i16, align 2
  %10 = alloca i16, align 2
  %11 = alloca ptr, align 8
  %12 = alloca ptr, align 8
  %13 = alloca ptr, align 8
  %14 = alloca ptr, align 8
  %15 = alloca i32, align 4
  %16 = alloca i32, align 4
  store ptr %0, ptr %7, align 8
  store i32 %1, ptr %8, align 4
  store i16 %2, ptr %9, align 2
  store i16 %3, ptr %10, align 2
  store ptr %4, ptr %11, align 8
  call void @llvm.lifetime.start.p0(i64 8, ptr %12) #6
  %17 = load ptr, ptr %7, align 8
  %18 = getelementptr inbounds nuw %struct.event_base, ptr %17, i32 0, i32 1
  %19 = load ptr, ptr %18, align 8
  store ptr %19, ptr %12, align 8
  call void @llvm.lifetime.start.p0(i64 8, ptr %13) #6
  store ptr null, ptr %13, align 8
  call void @llvm.lifetime.start.p0(i64 8, ptr %14) #6
  %20 = load ptr, ptr %11, align 8
  store ptr %20, ptr %14, align 8
  call void @llvm.lifetime.start.p0(i64 4, ptr %15) #6
  br label %21

21:                                               ; preds = %5
  br label %22

22:                                               ; preds = %21
  br label %23

23:                                               ; preds = %22
  %24 = load i16, ptr %10, align 2
  %25 = sext i16 %24 to i32
  %26 = and i32 %25, 134
  %27 = icmp ne i32 %26, 0
  br i1 %27, label %29, label %28

28:                                               ; preds = %23
  store i32 0, ptr %6, align 4
  store i32 1, ptr %16, align 4
  br label %134

29:                                               ; preds = %23
  %30 = load ptr, ptr %14, align 8
  %31 = getelementptr inbounds nuw %struct.pollidx, ptr %30, i32 0, i32 0
  %32 = load i32, ptr %31, align 4
  %33 = sub nsw i32 %32, 1
  store i32 %33, ptr %15, align 4
  %34 = load i32, ptr %15, align 4
  %35 = icmp slt i32 %34, 0
  br i1 %35, label %36, label %37

36:                                               ; preds = %29
  store i32 -1, ptr %6, align 4
  store i32 1, ptr %16, align 4
  br label %134

37:                                               ; preds = %29
  %38 = load ptr, ptr %12, align 8
  %39 = getelementptr inbounds nuw %struct.pollop, ptr %38, i32 0, i32 3
  %40 = load ptr, ptr %39, align 8
  %41 = load i32, ptr %15, align 4
  %42 = sext i32 %41 to i64
  %43 = getelementptr inbounds %struct.pollfd, ptr %40, i64 %42
  store ptr %43, ptr %13, align 8
  %44 = load i16, ptr %10, align 2
  %45 = sext i16 %44 to i32
  %46 = and i32 %45, 2
  %47 = icmp ne i32 %46, 0
  br i1 %47, label %48, label %55

48:                                               ; preds = %37
  %49 = load ptr, ptr %13, align 8
  %50 = getelementptr inbounds nuw %struct.pollfd, ptr %49, i32 0, i32 1
  %51 = load i16, ptr %50, align 4
  %52 = sext i16 %51 to i32
  %53 = and i32 %52, -2
  %54 = trunc i32 %53 to i16
  store i16 %54, ptr %50, align 4
  br label %55

55:                                               ; preds = %48, %37
  %56 = load i16, ptr %10, align 2
  %57 = sext i16 %56 to i32
  %58 = and i32 %57, 4
  %59 = icmp ne i32 %58, 0
  br i1 %59, label %60, label %67

60:                                               ; preds = %55
  %61 = load ptr, ptr %13, align 8
  %62 = getelementptr inbounds nuw %struct.pollfd, ptr %61, i32 0, i32 1
  %63 = load i16, ptr %62, align 4
  %64 = sext i16 %63 to i32
  %65 = and i32 %64, -5
  %66 = trunc i32 %65 to i16
  store i16 %66, ptr %62, align 4
  br label %67

67:                                               ; preds = %60, %55
  %68 = load i16, ptr %10, align 2
  %69 = sext i16 %68 to i32
  %70 = and i32 %69, 128
  %71 = icmp ne i32 %70, 0
  br i1 %71, label %72, label %79

72:                                               ; preds = %67
  %73 = load ptr, ptr %13, align 8
  %74 = getelementptr inbounds nuw %struct.pollfd, ptr %73, i32 0, i32 1
  %75 = load i16, ptr %74, align 4
  %76 = sext i16 %75 to i32
  %77 = and i32 %76, -8193
  %78 = trunc i32 %77 to i16
  store i16 %78, ptr %74, align 4
  br label %79

79:                                               ; preds = %72, %67
  %80 = load ptr, ptr %13, align 8
  %81 = getelementptr inbounds nuw %struct.pollfd, ptr %80, i32 0, i32 1
  %82 = load i16, ptr %81, align 4
  %83 = icmp ne i16 %82, 0
  br i1 %83, label %84, label %85

84:                                               ; preds = %79
  store i32 0, ptr %6, align 4
  store i32 1, ptr %16, align 4
  br label %134

85:                                               ; preds = %79
  %86 = load ptr, ptr %14, align 8
  %87 = getelementptr inbounds nuw %struct.pollidx, ptr %86, i32 0, i32 0
  store i32 0, ptr %87, align 4
  %88 = load ptr, ptr %12, align 8
  %89 = getelementptr inbounds nuw %struct.pollop, ptr %88, i32 0, i32 1
  %90 = load i32, ptr %89, align 4
  %91 = add nsw i32 %90, -1
  store i32 %91, ptr %89, align 4
  %92 = load i32, ptr %15, align 4
  %93 = load ptr, ptr %12, align 8
  %94 = getelementptr inbounds nuw %struct.pollop, ptr %93, i32 0, i32 1
  %95 = load i32, ptr %94, align 4
  %96 = icmp ne i32 %92, %95
  br i1 %96, label %97, label %133

97:                                               ; preds = %85
  %98 = load ptr, ptr %12, align 8
  %99 = getelementptr inbounds nuw %struct.pollop, ptr %98, i32 0, i32 3
  %100 = load ptr, ptr %99, align 8
  %101 = load i32, ptr %15, align 4
  %102 = sext i32 %101 to i64
  %103 = getelementptr inbounds %struct.pollfd, ptr %100, i64 %102
  %104 = load ptr, ptr %12, align 8
  %105 = getelementptr inbounds nuw %struct.pollop, ptr %104, i32 0, i32 3
  %106 = load ptr, ptr %105, align 8
  %107 = load ptr, ptr %12, align 8
  %108 = getelementptr inbounds nuw %struct.pollop, ptr %107, i32 0, i32 1
  %109 = load i32, ptr %108, align 4
  %110 = sext i32 %109 to i64
  %111 = getelementptr inbounds %struct.pollfd, ptr %106, i64 %110
  call void @llvm.memcpy.p0.p0.i64(ptr align 4 %103, ptr align 4 %111, i64 8, i1 false)
  %112 = load ptr, ptr %7, align 8
  %113 = getelementptr inbounds nuw %struct.event_base, ptr %112, i32 0, i32 23
  %114 = load ptr, ptr %12, align 8
  %115 = getelementptr inbounds nuw %struct.pollop, ptr %114, i32 0, i32 3
  %116 = load ptr, ptr %115, align 8
  %117 = load i32, ptr %15, align 4
  %118 = sext i32 %117 to i64
  %119 = getelementptr inbounds %struct.pollfd, ptr %116, i64 %118
  %120 = getelementptr inbounds nuw %struct.pollfd, ptr %119, i32 0, i32 0
  %121 = load i32, ptr %120, align 4
  %122 = call ptr @evmap_io_get_fdinfo_(ptr noundef %113, i32 noundef %121)
  store ptr %122, ptr %14, align 8
  br label %123

123:                                              ; preds = %97
  br label %124

124:                                              ; preds = %123
  br label %125

125:                                              ; preds = %124
  br label %126

126:                                              ; preds = %125
  br label %127

127:                                              ; preds = %126
  br label %128

128:                                              ; preds = %127
  %129 = load i32, ptr %15, align 4
  %130 = add nsw i32 %129, 1
  %131 = load ptr, ptr %14, align 8
  %132 = getelementptr inbounds nuw %struct.pollidx, ptr %131, i32 0, i32 0
  store i32 %130, ptr %132, align 4
  br label %133

133:                                              ; preds = %128, %85
  store i32 0, ptr %6, align 4
  store i32 1, ptr %16, align 4
  br label %134

134:                                              ; preds = %133, %84, %36, %28
  call void @llvm.lifetime.end.p0(i64 4, ptr %15) #6
  call void @llvm.lifetime.end.p0(i64 8, ptr %14) #6
  call void @llvm.lifetime.end.p0(i64 8, ptr %13) #6
  call void @llvm.lifetime.end.p0(i64 8, ptr %12) #6
  %135 = load i32, ptr %6, align 4
  ret i32 %135
}