; Function Attrs: nounwind uwtable
define internal range(i32 -1, 1) i32 @poll_del(ptr noundef %0, i32 %1, i16 signext %2, i16 noundef signext %3, ptr noundef captures(none) %4) #0 {
  %6 = getelementptr inbounds nuw i8, ptr %0, i64 8
  %7 = load ptr, ptr %6, align 8
  %8 = and i16 %3, 134
  %.not = icmp eq i16 %8, 0
  br i1 %.not, label %49, label %9

9:                                                ; preds = %5
  %10 = load i32, ptr %4, align 4
  %11 = icmp slt i32 %10, 1
  br i1 %11, label %49, label %12

12:                                               ; preds = %9
  %13 = add nsw i32 %10, -1
  %14 = getelementptr inbounds nuw i8, ptr %7, i64 16
  %15 = load ptr, ptr %14, align 8
  %16 = zext nneg i32 %13 to i64
  %17 = getelementptr inbounds nuw %struct.pollfd, ptr %15, i64 %16
  %18 = and i16 %3, 2
  %.not29 = icmp eq i16 %18, 0
  br i1 %.not29, label %23, label %19

19:                                               ; preds = %12
  %20 = getelementptr inbounds nuw i8, ptr %17, i64 4
  %21 = load i16, ptr %20, align 4
  %22 = and i16 %21, -2
  store i16 %22, ptr %20, align 4
  br label %23

23:                                               ; preds = %19, %12
  %24 = and i16 %3, 4
  %.not30 = icmp eq i16 %24, 0
  br i1 %.not30, label %29, label %25

25:                                               ; preds = %23
  %26 = getelementptr inbounds nuw i8, ptr %17, i64 4
  %27 = load i16, ptr %26, align 4
  %28 = and i16 %27, -5
  store i16 %28, ptr %26, align 4
  br label %29

29:                                               ; preds = %25, %23
  %30 = and i16 %3, 128
  %.not31 = icmp eq i16 %30, 0
  %.phi.trans.insert = getelementptr inbounds nuw i8, ptr %17, i64 4
  %.pre = load i16, ptr %.phi.trans.insert, align 4
  br i1 %.not31, label %._crit_edge, label %31

31:                                               ; preds = %29
  %32 = and i16 %.pre, -8193
  store i16 %32, ptr %.phi.trans.insert, align 4
  br label %._crit_edge

._crit_edge:                                      ; preds = %29, %31
  %33 = phi i16 [ %32, %31 ], [ %.pre, %29 ]
  %.not32 = icmp eq i16 %33, 0
  br i1 %.not32, label %34, label %49

34:                                               ; preds = %._crit_edge
  store i32 0, ptr %4, align 4
  %35 = getelementptr inbounds nuw i8, ptr %7, i64 4
  %36 = load i32, ptr %35, align 4
  %37 = add nsw i32 %36, -1
  store i32 %37, ptr %35, align 4
  %.not33 = icmp eq i32 %10, %36
  br i1 %.not33, label %49, label %38

38:                                               ; preds = %34
  %39 = load ptr, ptr %14, align 8
  %40 = getelementptr inbounds nuw %struct.pollfd, ptr %39, i64 %16
  %41 = sext i32 %37 to i64
  %42 = getelementptr inbounds %struct.pollfd, ptr %39, i64 %41
  %43 = load i64, ptr %42, align 4
  store i64 %43, ptr %40, align 4
  %44 = getelementptr inbounds nuw i8, ptr %0, i64 808
  %45 = load ptr, ptr %14, align 8
  %46 = getelementptr inbounds nuw %struct.pollfd, ptr %45, i64 %16
  %47 = load i32, ptr %46, align 4
  %48 = tail call ptr @evmap_io_get_fdinfo_(ptr noundef nonnull %44, i32 noundef %47) #6
  store i32 %10, ptr %48, align 4
  br label %49

49:                                               ; preds = %34, %38, %._crit_edge, %9, %5
  %.0 = phi i32 [ 0, %5 ], [ -1, %9 ], [ 0, %._crit_edge ], [ 0, %38 ], [ 0, %34 ]
  ret i32 %.0
}